target datalayout = "e-m:e-p270:32:32-p271:32:32-p272:64:64-i64:64-i128:128-f80:128-n8:16:32:64-S128"
target triple = "x86_64-pc-linux-gnu"

@_ZN2cvL19customErrorCallbackE = internal global ptr null, align 8
@_ZN2cvL23customErrorCallbackDataE = internal global ptr null, align 8

; Function Attrs: mustprogress nounwind uwtable
define noundef ptr @_ZN2cv13redirectErrorEPFiiPKcS1_S1_iPvES2_PS2_(ptr noundef %0, ptr noundef %1, ptr noundef %2) #5 {
  %4 = alloca ptr, align 8
  %5 = alloca ptr, align 8
  %6 = alloca ptr, align 8
  %7 = alloca ptr, align 8
  store ptr %0, ptr %4, align 8, !tbaa !39
  store ptr %1, ptr %5, align 8, !tbaa !39
  store ptr %2, ptr %6, align 8, !tbaa !91
  %8 = load ptr, ptr %6, align 8, !tbaa !91
  %9 = icmp ne ptr %8, null
  br i1 %9, label %10, label %13

10:                                               ; preds = %3
  %11 = load ptr, ptr @_ZN2cvL23customErrorCallbackDataE, align 8, !tbaa !39
  %12 = load ptr, ptr %6, align 8, !tbaa !91
  store ptr %11, ptr %12, align 8, !tbaa !39
  br label %13

13:                                               ; preds = %10, %3
  call void @llvm.lifetime.start.p0(i64 8, ptr %7) #3
  %14 = load ptr, ptr @_ZN2cvL19customErrorCallbackE, align 8, !tbaa !39
  store ptr %14, ptr %7, align 8, !tbaa !39
  %15 = load ptr, ptr %4, align 8, !tbaa !39
  store ptr %15, ptr @_ZN2cvL19customErrorCallbackE, align 8, !tbaa !39
  %16 = load ptr, ptr %5, align 8, !tbaa !39
  store ptr %16, ptr @_ZN2cvL23customErrorCallbackDataE, align 8, !tbaa !39
  %17 = load ptr, ptr %7, align 8, !tbaa !39
  call void @llvm.lifetime.end.p0(i64 8, ptr %7) #3
  ret ptr %17
}

; Function Attrs: mustprogress nounwind uwtable
define ptr @cvRedirectError(ptr noundef %0, ptr noundef %1, ptr noundef %2) #5 {
  %4 = alloca ptr, align 8
  %5 = alloca ptr, align 8
  %6 = alloca ptr, align 8
  store ptr %0, ptr %4, align 8, !tbaa !39
  store ptr %1, ptr %5, align 8, !tbaa !39
  store ptr %2, ptr %6, align 8, !tbaa !91
  %7 = load ptr, ptr %4, align 8, !tbaa !39
  %8 = load ptr, ptr %5, align 8, !tbaa !39
  %9 = load ptr, ptr %6, align 8, !tbaa !91
  %10 = call noundef ptr @_ZN2cv13redirectErrorEPFiiPKcS1_S1_iPvES2_PS2_(ptr noundef %7, ptr noundef %8, ptr noundef %9)
  ret ptr %10
}