; Function Attrs: mustprogress nofree norecurse nosync nounwind willreturn memory(readwrite, argmem: write, inaccessiblemem: none) uwtable
define ptr @cvRedirectError(ptr noundef %0, ptr noundef %1, ptr noundef writeonly %2) local_unnamed_addr #26 {
  %.not.i = icmp eq ptr %2, null
  br i1 %.not.i, label %_ZN2cv13redirectErrorEPFiiPKcS1_S1_iPvES2_PS2_.exit, label %4

4:                                                ; preds = %3
  %5 = load ptr, ptr @_ZN2cvL23customErrorCallbackDataE, align 8, !tbaa !115
  store ptr %5, ptr %2, align 8, !tbaa !115
  br label %_ZN2cv13redirectErrorEPFiiPKcS1_S1_iPvES2_PS2_.exit

_ZN2cv13redirectErrorEPFiiPKcS1_S1_iPvES2_PS2_.exit: ; preds = %3, %4
  %6 = load ptr, ptr @_ZN2cvL19customErrorCallbackE, align 8, !tbaa !115
  store ptr %0, ptr @_ZN2cvL19customErrorCallbackE, align 8, !tbaa !115
  store ptr %1, ptr @_ZN2cvL23customErrorCallbackDataE, align 8, !tbaa !115
  ret ptr %6
}